; Function Attrs: nounwind uwtable
define zeroext range(i8 0, 2) i8 @l_Array_anyMUnsafe_any___at_Lean_Lsp_Ipc_waitForMessage_loop___spec__1(ptr noundef %0, ptr noundef readonly captures(none) %1, i64 noundef %2, i64 noundef %3) local_unnamed_addr #0 {
  %.not37 = icmp eq i64 %2, %3
  br i1 %.not37, label %lean_dec.exit._crit_edge, label %.lr.ph

.lr.ph:                                           ; preds = %4
  %5 = getelementptr inbounds nuw i8, ptr %1, i64 24
  %6 = getelementptr i8, ptr %0, i64 8
  br label %9

7:                                                ; preds = %lean_dec.exit
  %8 = add i64 %.01838, 1
  %.not = icmp eq i64 %8, %3
  br i1 %.not, label %lean_dec.exit._crit_edge, label %9

9:                                                ; preds = %.lr.ph, %7
  %.01838 = phi i64 [ %2, %.lr.ph ], [ %8, %7 ]
  %10 = getelementptr inbounds nuw [0 x ptr], ptr %5, i64 0, i64 %.01838
  %11 = load ptr, ptr %10, align 8, !tbaa !4
  %12 = ptrtoint ptr %11 to i64
  %13 = and i64 %12, 1
  %.not.i26 = icmp eq i64 %13, 0
  br i1 %.not.i26, label %14, label %lean_array_uget.exit

14:                                               ; preds = %9
  %.val.i.i = load i32, ptr %11, align 4, !tbaa !8
  %15 = icmp sgt i32 %.val.i.i, 0
  br i1 %15, label %16, label %18, !prof !11

16:                                               ; preds = %14
  %17 = add nuw i32 %.val.i.i, 1
  store i32 %17, ptr %11, align 4, !tbaa !8
  br label %lean_array_uget.exit

18:                                               ; preds = %14
  %.not.i.i = icmp eq i32 %.val.i.i, 0
  br i1 %.not.i.i, label %lean_array_uget.exit, label %19

19:                                               ; preds = %18
  tail call void @lean_inc_ref_cold(ptr noundef nonnull %11) #4
  br label %lean_array_uget.exit

lean_array_uget.exit:                             ; preds = %9, %16, %18, %19
  %20 = getelementptr inbounds nuw i8, ptr %11, i64 56
  %21 = load ptr, ptr %20, align 8, !tbaa !4
  %22 = ptrtoint ptr %21 to i64
  %23 = and i64 %22, 1
  %.not35 = icmp eq i64 %23, 0
  br i1 %.not35, label %24, label %lean_inc.exit

24:                                               ; preds = %lean_array_uget.exit
  %.val.i = load i32, ptr %21, align 4, !tbaa !8
  %25 = icmp sgt i32 %.val.i, 0
  br i1 %25, label %26, label %28, !prof !11

26:                                               ; preds = %24
  %27 = add nuw i32 %.val.i, 1
  store i32 %27, ptr %21, align 4, !tbaa !8
  br label %lean_inc.exit

28:                                               ; preds = %24
  %.not.i27 = icmp eq i32 %.val.i, 0
  br i1 %.not.i27, label %lean_inc.exit, label %29

29:                                               ; preds = %28
  tail call void @lean_inc_ref_cold(ptr noundef nonnull %21) #4
  br label %lean_inc.exit

lean_inc.exit:                                    ; preds = %29, %28, %26, %lean_array_uget.exit
  br i1 %.not.i26, label %30, label %lean_dec.exit23

30:                                               ; preds = %lean_inc.exit
  %31 = load i32, ptr %11, align 4, !tbaa !8
  %32 = icmp sgt i32 %31, 1
  br i1 %32, label %33, label %35, !prof !11

33:                                               ; preds = %30
  %34 = add nsw i32 %31, -1
  store i32 %34, ptr %11, align 4, !tbaa !8
  br label %lean_dec.exit23

35:                                               ; preds = %30
  %.not.i = icmp eq i32 %31, 0
  br i1 %.not.i, label %lean_dec.exit23, label %36

36:                                               ; preds = %35
  tail call void @lean_dec_ref_cold(ptr noundef nonnull %11) #4
  br label %lean_dec.exit23

lean_dec.exit23:                                  ; preds = %36, %35, %33, %lean_inc.exit
  %37 = icmp eq ptr %21, %0
  br i1 %37, label %lean_string_dec_eq.exit, label %38

38:                                               ; preds = %lean_dec.exit23
  %39 = getelementptr i8, ptr %21, i64 8
  %.val.i.i28 = load i64, ptr %39, align 8, !tbaa !12
  %.val7.i.i = load i64, ptr %6, align 8, !tbaa !12
  %40 = icmp eq i64 %.val.i.i28, %.val7.i.i
  br i1 %40, label %41, label %lean_string_dec_eq.exit

41:                                               ; preds = %38
  %42 = tail call zeroext i1 @lean_string_eq_cold(ptr noundef nonnull %21, ptr noundef nonnull %0) #4
  %43 = xor i1 %42, true
  br label %lean_string_dec_eq.exit

lean_string_dec_eq.exit:                          ; preds = %lean_dec.exit23, %38, %41
  %44 = phi i1 [ false, %lean_dec.exit23 ], [ true, %38 ], [ %43, %41 ]
  br i1 %.not35, label %45, label %lean_dec.exit

45:                                               ; preds = %lean_string_dec_eq.exit
  %46 = load i32, ptr %21, align 4, !tbaa !8
  %47 = icmp sgt i32 %46, 1
  br i1 %47, label %48, label %50, !prof !11

48:                                               ; preds = %45
  %49 = add nsw i32 %46, -1
  store i32 %49, ptr %21, align 4, !tbaa !8
  br label %lean_dec.exit

50:                                               ; preds = %45
  %.not.i24 = icmp eq i32 %46, 0
  br i1 %.not.i24, label %lean_dec.exit, label %51

51:                                               ; preds = %50
  tail call void @lean_dec_ref_cold(ptr noundef nonnull %21) #4
  br label %lean_dec.exit

lean_dec.exit:                                    ; preds = %51, %50, %48, %lean_string_dec_eq.exit
  br i1 %44, label %7, label %lean_dec.exit._crit_edge

lean_dec.exit._crit_edge:                         ; preds = %7, %lean_dec.exit, %4
  %.2.ph = phi i8 [ 0, %4 ], [ 1, %lean_dec.exit ], [ 0, %7 ]
  ret i8 %.2.ph
}